target datalayout = "e-m:e-p270:32:32-p271:32:32-p272:64:64-i64:64-i128:128-f80:128-n8:16:32:64-S128"
target triple = "x86_64-pc-linux-gnu"

%"class.pxr::rapidjson::internal::Stack" = type { ptr, ptr, ptr, ptr, ptr, i64 }
%"class.pxr::rapidjson::BasicOStreamWrapper" = type { ptr }
%"class.pxr::rapidjson::Writer" = type <{ ptr, %"class.pxr::rapidjson::internal::Stack", i32, i8, [3 x i8] }>

; Function Attrs: mustprogress uwtable
define linkonce_odr void @_ZN3pxr9rapidjson19BasicOStreamWrapperISoE5FlushEv(ptr noundef nonnull align 8 dereferenceable(8) %0) #4 comdat align 2 {
  %2 = alloca ptr, align 8
  store ptr %0, ptr %2, align 8
  %3 = load ptr, ptr %2, align 8
  %4 = getelementptr inbounds nuw %"class.pxr::rapidjson::BasicOStreamWrapper", ptr %3, i32 0, i32 0
  %5 = load ptr, ptr %4, align 8
  %6 = call noundef nonnull align 8 dereferenceable(8) ptr @_ZNSo5flushEv(ptr noundef nonnull align 8 dereferenceable(8) %5)
  ret void
}

; Function Attrs: mustprogress uwtable
define linkonce_odr void @_ZN3pxr9rapidjson6WriterINS0_19BasicOStreamWrapperISoEENS0_4UTF8IcEES5_NS0_12CrtAllocatorELj0EE5FlushEv(ptr noundef nonnull align 8 dereferenceable(61) %0) #4 comdat align 2 {
  %2 = alloca ptr, align 8
  store ptr %0, ptr %2, align 8
  %3 = load ptr, ptr %2, align 8
  %4 = getelementptr inbounds nuw %"class.pxr::rapidjson::Writer", ptr %3, i32 0, i32 0
  %5 = load ptr, ptr %4, align 8
  call void @_ZN3pxr9rapidjson19BasicOStreamWrapperISoE5FlushEv(ptr noundef nonnull align 8 dereferenceable(8) %5)
  ret void
}

; Function Attrs: mustprogress nounwind uwtable
define linkonce_odr noundef zeroext i1 @_ZNK3pxr9rapidjson8internal5StackINS0_12CrtAllocatorEE5EmptyEv(ptr noundef nonnull align 8 dereferenceable(48) %0) #5 comdat align 2 {
  %2 = alloca ptr, align 8
  store ptr %0, ptr %2, align 8
  %3 = load ptr, ptr %2, align 8
  %4 = getelementptr inbounds nuw %"class.pxr::rapidjson::internal::Stack", ptr %3, i32 0, i32 3
  %5 = load ptr, ptr %4, align 8
  %6 = getelementptr inbounds nuw %"class.pxr::rapidjson::internal::Stack", ptr %3, i32 0, i32 2
  %7 = load ptr, ptr %6, align 8
  %8 = icmp eq ptr %5, %7
  ret i1 %8
}

; Function Attrs: mustprogress uwtable
define linkonce_odr void @_ZN3pxr9rapidjson19BasicOStreamWrapperISoE3PutEc(ptr noundef nonnull align 8 dereferenceable(8) %0, i8 noundef signext %1) #4 comdat align 2 {
  %3 = alloca ptr, align 8
  %4 = alloca i8, align 1
  store ptr %0, ptr %3, align 8
  store i8 %1, ptr %4, align 1
  %5 = load ptr, ptr %3, align 8
  %6 = getelementptr inbounds nuw %"class.pxr::rapidjson::BasicOStreamWrapper", ptr %5, i32 0, i32 0
  %7 = load ptr, ptr %6, align 8
  %8 = load i8, ptr %4, align 1
  %9 = call noundef nonnull align 8 dereferenceable(8) ptr @_ZNSo3putEc(ptr noundef nonnull align 8 dereferenceable(8) %7, i8 noundef signext %8)
  ret void
}

; Function Attrs: mustprogress uwtable
define linkonce_odr noundef zeroext i1 @_ZN3pxr9rapidjson6WriterINS0_19BasicOStreamWrapperISoEENS0_4UTF8IcEES5_NS0_12CrtAllocatorELj0EE8EndValueEb(ptr noundef nonnull align 8 dereferenceable(61) %0, i1 noundef zeroext %1) #4 comdat align 2 {
  %3 = alloca ptr, align 8
  %4 = alloca i8, align 1
  store ptr %0, ptr %3, align 8
  %5 = zext i1 %1 to i8
  store i8 %5, ptr %4, align 1
  %6 = load ptr, ptr %3, align 8
  %7 = getelementptr inbounds nuw %"class.pxr::rapidjson::Writer", ptr %6, i32 0, i32 1
  %8 = call noundef zeroext i1 @_ZNK3pxr9rapidjson8internal5StackINS0_12CrtAllocatorEE5EmptyEv(ptr noundef nonnull align 8 dereferenceable(48) %7)
  %9 = xor i1 %8, true
  %10 = xor i1 %9, true
  br i1 %10, label %11, label %12

11:                                               ; preds = %2
  call void @_ZN3pxr9rapidjson6WriterINS0_19BasicOStreamWrapperISoEENS0_4UTF8IcEES5_NS0_12CrtAllocatorELj0EE5FlushEv(ptr noundef nonnull align 8 dereferenceable(61) %6)
  br label %12

12:                                               ; preds = %11, %2
  %13 = load i8, ptr %4, align 1
  %14 = trunc i8 %13 to i1
  ret i1 %14
}

; Function Attrs: mustprogress uwtable
define linkonce_odr noundef zeroext i1 @_ZN3pxr9rapidjson6WriterINS0_19BasicOStreamWrapperISoEENS0_4UTF8IcEES5_NS0_12CrtAllocatorELj0EE13WriteEndArrayEv(ptr noundef nonnull align 8 dereferenceable(61) %0) #4 comdat align 2 {
  %2 = alloca ptr, align 8
  store ptr %0, ptr %2, align 8
  %3 = load ptr, ptr %2, align 8
  %4 = getelementptr inbounds nuw %"class.pxr::rapidjson::Writer", ptr %3, i32 0, i32 0
  %5 = load ptr, ptr %4, align 8
  call void @_ZN3pxr9rapidjson19BasicOStreamWrapperISoE3PutEc(ptr noundef nonnull align 8 dereferenceable(8) %5, i8 noundef signext 93)
  ret i1 true
}

; Function Attrs: mustprogress nounwind uwtable
define linkonce_odr noundef ptr @_ZN3pxr9rapidjson8internal5StackINS0_12CrtAllocatorEE3PopINS0_6WriterINS0_19BasicOStreamWrapperISoEENS0_4UTF8IcEESA_S3_Lj0EE5LevelEEEPT_m(ptr noundef nonnull align 8 dereferenceable(48) %0, i64 noundef %1) #5 comdat align 2 {
  %3 = alloca ptr, align 8
  %4 = alloca i64, align 8
  store ptr %0, ptr %3, align 8
  store i64 %1, ptr %4, align 8
  %5 = load ptr, ptr %3, align 8
  %6 = load i64, ptr %4, align 8
  %7 = mul i64 %6, 16
  %8 = getelementptr inbounds nuw %"class.pxr::rapidjson::internal::Stack", ptr %5, i32 0, i32 3
  %9 = load ptr, ptr %8, align 8
  %10 = sub i64 0, %7
  %11 = getelementptr inbounds i8, ptr %9, i64 %10
  store ptr %11, ptr %8, align 8
  %12 = getelementptr inbounds nuw %"class.pxr::rapidjson::internal::Stack", ptr %5, i32 0, i32 3
  %13 = load ptr, ptr %12, align 8
  ret ptr %13
}

; Function Attrs: mustprogress uwtable
define linkonce_odr noundef zeroext i1 @_ZN3pxr9rapidjson6WriterINS0_19BasicOStreamWrapperISoEENS0_4UTF8IcEES5_NS0_12CrtAllocatorELj0EE8EndArrayEj(ptr noundef nonnull align 8 dereferenceable(61) %0, i32 noundef %1) #4 comdat align 2 {
  %3 = alloca ptr, align 8
  %4 = alloca i32, align 4
  store ptr %0, ptr %3, align 8
  store i32 %1, ptr %4, align 4
  %5 = load ptr, ptr %3, align 8
  %6 = getelementptr inbounds nuw %"class.pxr::rapidjson::Writer", ptr %5, i32 0, i32 1
  %7 = call noundef ptr @_ZN3pxr9rapidjson8internal5StackINS0_12CrtAllocatorEE3PopINS0_6WriterINS0_19BasicOStreamWrapperISoEENS0_4UTF8IcEESA_S3_Lj0EE5LevelEEEPT_m(ptr noundef nonnull align 8 dereferenceable(48) %6, i64 noundef 1)
  %8 = call noundef zeroext i1 @_ZN3pxr9rapidjson6WriterINS0_19BasicOStreamWrapperISoEENS0_4UTF8IcEES5_NS0_12CrtAllocatorELj0EE13WriteEndArrayEv(ptr noundef nonnull align 8 dereferenceable(61) %5)
  %9 = call noundef zeroext i1 @_ZN3pxr9rapidjson6WriterINS0_19BasicOStreamWrapperISoEENS0_4UTF8IcEES5_NS0_12CrtAllocatorELj0EE8EndValueEb(ptr noundef nonnull align 8 dereferenceable(61) %5, i1 noundef zeroext %8)
  ret i1 %9
}

; Function Attrs: mustprogress uwtable
define internal noundef zeroext i1 @_ZN32pxrInternal_v0_24__pxrReserved__12_GLOBAL__N_120Js_PolymorphicWriterIN12_GLOBAL__N_110_WriterFixIN3pxr9rapidjson6WriterINS5_19BasicOStreamWrapperISoEENS5_4UTF8IcEESA_NS5_12CrtAllocatorELj0EEEEEE8EndArrayEv(ptr noundef nonnull align 8 dereferenceable(69) %0) unnamed_addr #4 align 2 {
  %2 = alloca ptr, align 8
  store ptr %0, ptr %2, align 8
  %3 = load ptr, ptr %2, align 8
  %4 = getelementptr inbounds i8, ptr %3, i64 8
  %5 = call noundef zeroext i1 @_ZN3pxr9rapidjson6WriterINS0_19BasicOStreamWrapperISoEENS0_4UTF8IcEES5_NS0_12CrtAllocatorELj0EE8EndArrayEj(ptr noundef nonnull align 8 dereferenceable(61) %4, i32 noundef 0)
  ret i1 %5
}